; Function Attrs: mustprogress nofree norecurse nosync nounwind willreturn memory(argmem: readwrite) uwtable
define void @_ZN6icu_7518BreakEngineWrapperC2EPNS_19ExternalBreakEngineER10UErrorCode(ptr nocapture noundef nonnull writeonly align 8 dereferenceable(16) %this, ptr noundef %engine, ptr nocapture noundef nonnull align 4 dereferenceable(4) %status) unnamed_addr #11 align 2 personality ptr @__gxx_personality_v0 {
entry:
  store ptr getelementptr inbounds ({ [7 x ptr] }, ptr @_ZTVN6icu_7518BreakEngineWrapperE, i64 0, i32 0, i64 2), ptr %this, align 8
  %delegate = getelementptr inbounds i8, ptr %this, i64 8
  store ptr %engine, ptr %delegate, align 8
  %cmp.i = icmp ne ptr %engine, null
  %0 = load i32, ptr %status, align 4
  %cmp.i.i = icmp sgt i32 %0, 0
  %or.cond.i = select i1 %cmp.i, i1 true, i1 %cmp.i.i
  br i1 %or.cond.i, label %invoke.cont, label %if.then.i

if.then.i:                                        ; preds = %entry
  store i32 7, ptr %status, align 4
  br label %invoke.cont

invoke.cont:                                      ; preds = %if.then.i, %entry
  ret void
}